target datalayout = "e-m:e-p270:32:32-p271:32:32-p272:64:64-i64:64-i128:128-f80:128-n8:16:32:64-S128"
target triple = "x86_64-unknown-linux-gnu"

%struct.host_termios = type { i32, i32, i32, i32, i8, [19 x i8] }
%struct.target_termios = type { i32, i32, i32, i32, i8, [19 x i8] }

; Function Attrs: nounwind sspstrong uwtable
define internal i32 @tswap32(i32 noundef %s) #0 {
entry:
  %s.addr = alloca i32, align 4
  store i32 %s, ptr %s.addr, align 4
  %0 = load i32, ptr %s.addr, align 4
  ret i32 %0
}

; Function Attrs: nounwind sspstrong uwtable
define internal void @target_to_host_termios(ptr noundef %dst, ptr noundef %src) #0 {
entry:
  %dst.addr = alloca ptr, align 8
  %src.addr = alloca ptr, align 8
  %host = alloca ptr, align 8
  %target = alloca ptr, align 8
  store ptr %dst, ptr %dst.addr, align 8
  store ptr %src, ptr %src.addr, align 8
  %0 = load ptr, ptr %dst.addr, align 8
  store ptr %0, ptr %host, align 8
  %1 = load ptr, ptr %src.addr, align 8
  store ptr %1, ptr %target, align 8
  %2 = load ptr, ptr %target, align 8
  %c_iflag = getelementptr inbounds %struct.target_termios, ptr %2, i32 0, i32 0
  %3 = load i32, ptr %c_iflag, align 4
  %call = call i32 @tswap32(i32 noundef %3)
  %call1 = call i32 @target_to_host_bitmask_len(i32 noundef %call, ptr noundef @iflag_tbl, i64 noundef 15)
  %4 = load ptr, ptr %host, align 8
  %c_iflag2 = getelementptr inbounds %struct.host_termios, ptr %4, i32 0, i32 0
  store i32 %call1, ptr %c_iflag2, align 4
  %5 = load ptr, ptr %target, align 8
  %c_oflag = getelementptr inbounds %struct.target_termios, ptr %5, i32 0, i32 1
  %6 = load i32, ptr %c_oflag, align 4
  %call3 = call i32 @tswap32(i32 noundef %6)
  %call4 = call i32 @target_to_host_bitmask_len(i32 noundef %call3, ptr noundef @oflag_tbl, i64 noundef 24)
  %7 = load ptr, ptr %host, align 8
  %c_oflag5 = getelementptr inbounds %struct.host_termios, ptr %7, i32 0, i32 1
  store i32 %call4, ptr %c_oflag5, align 4
  %8 = load ptr, ptr %target, align 8
  %c_cflag = getelementptr inbounds %struct.target_termios, ptr %8, i32 0, i32 2
  %9 = load i32, ptr %c_cflag, align 4
  %call6 = call i32 @tswap32(i32 noundef %9)
  %call7 = call i32 @target_to_host_bitmask_len(i32 noundef %call6, ptr noundef @cflag_tbl, i64 noundef 31)
  %10 = load ptr, ptr %host, align 8
  %c_cflag8 = getelementptr inbounds %struct.host_termios, ptr %10, i32 0, i32 2
  store i32 %call7, ptr %c_cflag8, align 4
  %11 = load ptr, ptr %target, align 8
  %c_lflag = getelementptr inbounds %struct.target_termios, ptr %11, i32 0, i32 3
  %12 = load i32, ptr %c_lflag, align 4
  %call9 = call i32 @tswap32(i32 noundef %12)
  %call10 = call i32 @target_to_host_bitmask_len(i32 noundef %call9, ptr noundef @lflag_tbl, i64 noundef 16)
  %13 = load ptr, ptr %host, align 8
  %c_lflag11 = getelementptr inbounds %struct.host_termios, ptr %13, i32 0, i32 3
  store i32 %call10, ptr %c_lflag11, align 4
  %14 = load ptr, ptr %target, align 8
  %c_line = getelementptr inbounds %struct.target_termios, ptr %14, i32 0, i32 4
  %15 = load i8, ptr %c_line, align 4
  %16 = load ptr, ptr %host, align 8
  %c_line12 = getelementptr inbounds %struct.host_termios, ptr %16, i32 0, i32 4
  store i8 %15, ptr %c_line12, align 4
  %17 = load ptr, ptr %host, align 8
  %c_cc = getelementptr inbounds %struct.host_termios, ptr %17, i32 0, i32 5
  %arraydecay = getelementptr inbounds [19 x i8], ptr %c_cc, i64 0, i64 0
  call void @llvm.memset.p0.i64(ptr align 1 %arraydecay, i8 0, i64 19, i1 false)
  %18 = load ptr, ptr %target, align 8
  %c_cc13 = getelementptr inbounds %struct.target_termios, ptr %18, i32 0, i32 5
  %arrayidx = getelementptr [19 x i8], ptr %c_cc13, i64 0, i64 0
  %19 = load i8, ptr %arrayidx, align 1
  %20 = load ptr, ptr %host, align 8
  %c_cc14 = getelementptr inbounds %struct.host_termios, ptr %20, i32 0, i32 5
  %arrayidx15 = getelementptr [19 x i8], ptr %c_cc14, i64 0, i64 0
  store i8 %19, ptr %arrayidx15, align 1
  %21 = load ptr, ptr %target, align 8
  %c_cc16 = getelementptr inbounds %struct.target_termios, ptr %21, i32 0, i32 5
  %arrayidx17 = getelementptr [19 x i8], ptr %c_cc16, i64 0, i64 1
  %22 = load i8, ptr %arrayidx17, align 1
  %23 = load ptr, ptr %host, align 8
  %c_cc18 = getelementptr inbounds %struct.host_termios, ptr %23, i32 0, i32 5
  %arrayidx19 = getelementptr [19 x i8], ptr %c_cc18, i64 0, i64 1
  store i8 %22, ptr %arrayidx19, align 1
  %24 = load ptr, ptr %target, align 8
  %c_cc20 = getelementptr inbounds %struct.target_termios, ptr %24, i32 0, i32 5
  %arrayidx21 = getelementptr [19 x i8], ptr %c_cc20, i64 0, i64 2
  %25 = load i8, ptr %arrayidx21, align 1
  %26 = load ptr, ptr %host, align 8
  %c_cc22 = getelementptr inbounds %struct.host_termios, ptr %26, i32 0, i32 5
  %arrayidx23 = getelementptr [19 x i8], ptr %c_cc22, i64 0, i64 2
  store i8 %25, ptr %arrayidx23, align 1
  %27 = load ptr, ptr %target, align 8
  %c_cc24 = getelementptr inbounds %struct.target_termios, ptr %27, i32 0, i32 5
  %arrayidx25 = getelementptr [19 x i8], ptr %c_cc24, i64 0, i64 3
  %28 = load i8, ptr %arrayidx25, align 1
  %29 = load ptr, ptr %host, align 8
  %c_cc26 = getelementptr inbounds %struct.host_termios, ptr %29, i32 0, i32 5
  %arrayidx27 = getelementptr [19 x i8], ptr %c_cc26, i64 0, i64 3
  store i8 %28, ptr %arrayidx27, align 1
  %30 = load ptr, ptr %target, align 8
  %c_cc28 = getelementptr inbounds %struct.target_termios, ptr %30, i32 0, i32 5
  %arrayidx29 = getelementptr [19 x i8], ptr %c_cc28, i64 0, i64 4
  %31 = load i8, ptr %arrayidx29, align 1
  %32 = load ptr, ptr %host, align 8
  %c_cc30 = getelementptr inbounds %struct.host_termios, ptr %32, i32 0, i32 5
  %arrayidx31 = getelementptr [19 x i8], ptr %c_cc30, i64 0, i64 4
  store i8 %31, ptr %arrayidx31, align 1
  %33 = load ptr, ptr %target, align 8
  %c_cc32 = getelementptr inbounds %struct.target_termios, ptr %33, i32 0, i32 5
  %arrayidx33 = getelementptr [19 x i8], ptr %c_cc32, i64 0, i64 5
  %34 = load i8, ptr %arrayidx33, align 1
  %35 = load ptr, ptr %host, align 8
  %c_cc34 = getelementptr inbounds %struct.host_termios, ptr %35, i32 0, i32 5
  %arrayidx35 = getelementptr [19 x i8], ptr %c_cc34, i64 0, i64 5
  store i8 %34, ptr %arrayidx35, align 1
  %36 = load ptr, ptr %target, align 8
  %c_cc36 = getelementptr inbounds %struct.target_termios, ptr %36, i32 0, i32 5
  %arrayidx37 = getelementptr [19 x i8], ptr %c_cc36, i64 0, i64 6
  %37 = load i8, ptr %arrayidx37, align 1
  %38 = load ptr, ptr %host, align 8
  %c_cc38 = getelementptr inbounds %struct.host_termios, ptr %38, i32 0, i32 5
  %arrayidx39 = getelementptr [19 x i8], ptr %c_cc38, i64 0, i64 6
  store i8 %37, ptr %arrayidx39, align 1
  %39 = load ptr, ptr %target, align 8
  %c_cc40 = getelementptr inbounds %struct.target_termios, ptr %39, i32 0, i32 5
  %arrayidx41 = getelementptr [19 x i8], ptr %c_cc40, i64 0, i64 7
  %40 = load i8, ptr %arrayidx41, align 1
  %41 = load ptr, ptr %host, align 8
  %c_cc42 = getelementptr inbounds %struct.host_termios, ptr %41, i32 0, i32 5
  %arrayidx43 = getelementptr [19 x i8], ptr %c_cc42, i64 0, i64 7
  store i8 %40, ptr %arrayidx43, align 1
  %42 = load ptr, ptr %target, align 8
  %c_cc44 = getelementptr inbounds %struct.target_termios, ptr %42, i32 0, i32 5
  %arrayidx45 = getelementptr [19 x i8], ptr %c_cc44, i64 0, i64 8
  %43 = load i8, ptr %arrayidx45, align 1
  %44 = load ptr, ptr %host, align 8
  %c_cc46 = getelementptr inbounds %struct.host_termios, ptr %44, i32 0, i32 5
  %arrayidx47 = getelementptr [19 x i8], ptr %c_cc46, i64 0, i64 8
  store i8 %43, ptr %arrayidx47, align 1
  %45 = load ptr, ptr %target, align 8
  %c_cc48 = getelementptr inbounds %struct.target_termios, ptr %45, i32 0, i32 5
  %arrayidx49 = getelementptr [19 x i8], ptr %c_cc48, i64 0, i64 9
  %46 = load i8, ptr %arrayidx49, align 1
  %47 = load ptr, ptr %host, align 8
  %c_cc50 = getelementptr inbounds %struct.host_termios, ptr %47, i32 0, i32 5
  %arrayidx51 = getelementptr [19 x i8], ptr %c_cc50, i64 0, i64 9
  store i8 %46, ptr %arrayidx51, align 1
  %48 = load ptr, ptr %target, align 8
  %c_cc52 = getelementptr inbounds %struct.target_termios, ptr %48, i32 0, i32 5
  %arrayidx53 = getelementptr [19 x i8], ptr %c_cc52, i64 0, i64 10
  %49 = load i8, ptr %arrayidx53, align 1
  %50 = load ptr, ptr %host, align 8
  %c_cc54 = getelementptr inbounds %struct.host_termios, ptr %50, i32 0, i32 5
  %arrayidx55 = getelementptr [19 x i8], ptr %c_cc54, i64 0, i64 10
  store i8 %49, ptr %arrayidx55, align 1
  %51 = load ptr, ptr %target, align 8
  %c_cc56 = getelementptr inbounds %struct.target_termios, ptr %51, i32 0, i32 5
  %arrayidx57 = getelementptr [19 x i8], ptr %c_cc56, i64 0, i64 11
  %52 = load i8, ptr %arrayidx57, align 1
  %53 = load ptr, ptr %host, align 8
  %c_cc58 = getelementptr inbounds %struct.host_termios, ptr %53, i32 0, i32 5
  %arrayidx59 = getelementptr [19 x i8], ptr %c_cc58, i64 0, i64 11
  store i8 %52, ptr %arrayidx59, align 1
  %54 = load ptr, ptr %target, align 8
  %c_cc60 = getelementptr inbounds %struct.target_termios, ptr %54, i32 0, i32 5
  %arrayidx61 = getelementptr [19 x i8], ptr %c_cc60, i64 0, i64 12
  %55 = load i8, ptr %arrayidx61, align 1
  %56 = load ptr, ptr %host, align 8
  %c_cc62 = getelementptr inbounds %struct.host_termios, ptr %56, i32 0, i32 5
  %arrayidx63 = getelementptr [19 x i8], ptr %c_cc62, i64 0, i64 12
  store i8 %55, ptr %arrayidx63, align 1
  %57 = load ptr, ptr %target, align 8
  %c_cc64 = getelementptr inbounds %struct.target_termios, ptr %57, i32 0, i32 5
  %arrayidx65 = getelementptr [19 x i8], ptr %c_cc64, i64 0, i64 13
  %58 = load i8, ptr %arrayidx65, align 1
  %59 = load ptr, ptr %host, align 8
  %c_cc66 = getelementptr inbounds %struct.host_termios, ptr %59, i32 0, i32 5
  %arrayidx67 = getelementptr [19 x i8], ptr %c_cc66, i64 0, i64 13
  store i8 %58, ptr %arrayidx67, align 1
  %60 = load ptr, ptr %target, align 8
  %c_cc68 = getelementptr inbounds %struct.target_termios, ptr %60, i32 0, i32 5
  %arrayidx69 = getelementptr [19 x i8], ptr %c_cc68, i64 0, i64 14
  %61 = load i8, ptr %arrayidx69, align 1
  %62 = load ptr, ptr %host, align 8
  %c_cc70 = getelementptr inbounds %struct.host_termios, ptr %62, i32 0, i32 5
  %arrayidx71 = getelementptr [19 x i8], ptr %c_cc70, i64 0, i64 14
  store i8 %61, ptr %arrayidx71, align 1
  %63 = load ptr, ptr %target, align 8
  %c_cc72 = getelementptr inbounds %struct.target_termios, ptr %63, i32 0, i32 5
  %arrayidx73 = getelementptr [19 x i8], ptr %c_cc72, i64 0, i64 15
  %64 = load i8, ptr %arrayidx73, align 1
  %65 = load ptr, ptr %host, align 8
  %c_cc74 = getelementptr inbounds %struct.host_termios, ptr %65, i32 0, i32 5
  %arrayidx75 = getelementptr [19 x i8], ptr %c_cc74, i64 0, i64 15
  store i8 %64, ptr %arrayidx75, align 1
  %66 = load ptr, ptr %target, align 8
  %c_cc76 = getelementptr inbounds %struct.target_termios, ptr %66, i32 0, i32 5
  %arrayidx77 = getelementptr [19 x i8], ptr %c_cc76, i64 0, i64 16
  %67 = load i8, ptr %arrayidx77, align 1
  %68 = load ptr, ptr %host, align 8
  %c_cc78 = getelementptr inbounds %struct.host_termios, ptr %68, i32 0, i32 5
  %arrayidx79 = getelementptr [19 x i8], ptr %c_cc78, i64 0, i64 16
  store i8 %67, ptr %arrayidx79, align 1
  ret void
}