; Function Attrs: nounwind sspstrong uwtable
define internal void @target_to_host_termios(ptr noundef writeonly captures(none) initializes((0, 36)) %dst, ptr noundef readonly captures(none) %src) #2 {
entry:
  %0 = load i32, ptr %src, align 4
  %call1 = tail call i32 @target_to_host_bitmask_len(i32 noundef %0, ptr noundef nonnull @iflag_tbl, i64 noundef 15) #27
  store i32 %call1, ptr %dst, align 4
  %c_oflag = getelementptr inbounds nuw i8, ptr %src, i64 4
  %1 = load i32, ptr %c_oflag, align 4
  %call4 = tail call i32 @target_to_host_bitmask_len(i32 noundef %1, ptr noundef nonnull @oflag_tbl, i64 noundef 24) #27
  %c_oflag5 = getelementptr inbounds nuw i8, ptr %dst, i64 4
  store i32 %call4, ptr %c_oflag5, align 4
  %c_cflag = getelementptr inbounds nuw i8, ptr %src, i64 8
  %2 = load i32, ptr %c_cflag, align 4
  %call7 = tail call i32 @target_to_host_bitmask_len(i32 noundef %2, ptr noundef nonnull @cflag_tbl, i64 noundef 31) #27
  %c_cflag8 = getelementptr inbounds nuw i8, ptr %dst, i64 8
  store i32 %call7, ptr %c_cflag8, align 4
  %c_lflag = getelementptr inbounds nuw i8, ptr %src, i64 12
  %3 = load i32, ptr %c_lflag, align 4
  %call10 = tail call i32 @target_to_host_bitmask_len(i32 noundef %3, ptr noundef nonnull @lflag_tbl, i64 noundef 16) #27
  %c_lflag11 = getelementptr inbounds nuw i8, ptr %dst, i64 12
  store i32 %call10, ptr %c_lflag11, align 4
  %c_line = getelementptr inbounds nuw i8, ptr %src, i64 16
  %4 = load i8, ptr %c_line, align 4
  %c_line12 = getelementptr inbounds nuw i8, ptr %dst, i64 16
  store i8 %4, ptr %c_line12, align 4
  %c_cc = getelementptr inbounds nuw i8, ptr %dst, i64 17
  tail call void @llvm.memset.p0.i64(ptr noundef nonnull align 1 dereferenceable(19) %c_cc, i8 0, i64 19, i1 false)
  %c_cc13 = getelementptr inbounds nuw i8, ptr %src, i64 17
  %5 = load i8, ptr %c_cc13, align 1
  store i8 %5, ptr %c_cc, align 1
  %arrayidx17 = getelementptr i8, ptr %src, i64 18
  %6 = load i8, ptr %arrayidx17, align 1
  %arrayidx19 = getelementptr i8, ptr %dst, i64 18
  store i8 %6, ptr %arrayidx19, align 1
  %arrayidx21 = getelementptr i8, ptr %src, i64 19
  %7 = load i8, ptr %arrayidx21, align 1
  %arrayidx23 = getelementptr i8, ptr %dst, i64 19
  store i8 %7, ptr %arrayidx23, align 1
  %arrayidx25 = getelementptr i8, ptr %src, i64 20
  %8 = load i8, ptr %arrayidx25, align 1
  %arrayidx27 = getelementptr i8, ptr %dst, i64 20
  store i8 %8, ptr %arrayidx27, align 1
  %arrayidx29 = getelementptr i8, ptr %src, i64 21
  %9 = load i8, ptr %arrayidx29, align 1
  %arrayidx31 = getelementptr i8, ptr %dst, i64 21
  store i8 %9, ptr %arrayidx31, align 1
  %arrayidx33 = getelementptr i8, ptr %src, i64 22
  %10 = load i8, ptr %arrayidx33, align 1
  %arrayidx35 = getelementptr i8, ptr %dst, i64 22
  store i8 %10, ptr %arrayidx35, align 1
  %arrayidx37 = getelementptr i8, ptr %src, i64 23
  %11 = load i8, ptr %arrayidx37, align 1
  %arrayidx39 = getelementptr i8, ptr %dst, i64 23
  store i8 %11, ptr %arrayidx39, align 1
  %arrayidx41 = getelementptr i8, ptr %src, i64 24
  %12 = load i8, ptr %arrayidx41, align 1
  %arrayidx43 = getelementptr i8, ptr %dst, i64 24
  store i8 %12, ptr %arrayidx43, align 1
  %arrayidx45 = getelementptr i8, ptr %src, i64 25
  %13 = load i8, ptr %arrayidx45, align 1
  %arrayidx47 = getelementptr i8, ptr %dst, i64 25
  store i8 %13, ptr %arrayidx47, align 1
  %arrayidx49 = getelementptr i8, ptr %src, i64 26
  %14 = load i8, ptr %arrayidx49, align 1
  %arrayidx51 = getelementptr i8, ptr %dst, i64 26
  store i8 %14, ptr %arrayidx51, align 1
  %arrayidx53 = getelementptr i8, ptr %src, i64 27
  %15 = load i8, ptr %arrayidx53, align 1
  %arrayidx55 = getelementptr i8, ptr %dst, i64 27
  store i8 %15, ptr %arrayidx55, align 1
  %arrayidx57 = getelementptr i8, ptr %src, i64 28
  %16 = load i8, ptr %arrayidx57, align 1
  %arrayidx59 = getelementptr i8, ptr %dst, i64 28
  store i8 %16, ptr %arrayidx59, align 1
  %arrayidx61 = getelementptr i8, ptr %src, i64 29
  %17 = load i8, ptr %arrayidx61, align 1
  %arrayidx63 = getelementptr i8, ptr %dst, i64 29
  store i8 %17, ptr %arrayidx63, align 1
  %arrayidx65 = getelementptr i8, ptr %src, i64 30
  %18 = load i8, ptr %arrayidx65, align 1
  %arrayidx67 = getelementptr i8, ptr %dst, i64 30
  store i8 %18, ptr %arrayidx67, align 1
  %arrayidx69 = getelementptr i8, ptr %src, i64 31
  %19 = load i8, ptr %arrayidx69, align 1
  %arrayidx71 = getelementptr i8, ptr %dst, i64 31
  store i8 %19, ptr %arrayidx71, align 1
  %arrayidx73 = getelementptr i8, ptr %src, i64 32
  %20 = load i8, ptr %arrayidx73, align 1
  %arrayidx75 = getelementptr i8, ptr %dst, i64 32
  store i8 %20, ptr %arrayidx75, align 1
  %arrayidx77 = getelementptr i8, ptr %src, i64 33
  %21 = load i8, ptr %arrayidx77, align 1
  %arrayidx79 = getelementptr i8, ptr %dst, i64 33
  store i8 %21, ptr %arrayidx79, align 1
  ret void
}